; ModuleID = 'source-C-CXX/3/2105.cpp'
source_filename = "source-C-CXX/3/2105.cpp"
target datalayout = "e-m:e-p270:32:32-p271:32:32-p272:64:64-i64:64-f80:128-n8:16:32:64-S128"
target triple = "x86_64-pc-linux-gnu"

%"class.std::ios_base::Init" = type { i8 }
%"class.std::basic_istream" = type { i32 (...)**, i64, %"class.std::basic_ios" }
%"class.std::basic_ios" = type { %"class.std::ios_base", %"class.std::basic_ostream"*, i8, i8, %"class.std::basic_streambuf"*, %"class.std::ctype"*, %"class.std::num_put"*, %"class.std::num_get"* }
%"class.std::ios_base" = type { i32 (...)**, i64, i64, i32, i32, i32, %"struct.std::ios_base::_Callback_list"*, %"struct.std::ios_base::_Words", [8 x %"struct.std::ios_base::_Words"], i32, %"struct.std::ios_base::_Words"*, %"class.std::locale" }
%"struct.std::ios_base::_Callback_list" = type { %"struct.std::ios_base::_Callback_list"*, void (i32, %"class.std::ios_base"*, i32)*, i32, i32 }
%"struct.std::ios_base::_Words" = type { i8*, i64 }
%"class.std::locale" = type { %"class.std::locale::_Impl"* }
%"class.std::locale::_Impl" = type { i32, %"class.std::locale::facet"**, i64, %"class.std::locale::facet"**, i8** }
%"class.std::locale::facet" = type <{ i32 (...)**, i32, [4 x i8] }>
%"class.std::basic_ostream" = type { i32 (...)**, %"class.std::basic_ios" }
%"class.std::basic_streambuf" = type { i32 (...)**, i8*, i8*, i8*, i8*, i8*, i8*, %"class.std::locale" }
%"class.std::ctype" = type <{ %"class.std::locale::facet.base", [4 x i8], %struct.__locale_struct*, i8, [7 x i8], i32*, i32*, i16*, i8, [256 x i8], [256 x i8], i8, [6 x i8] }>
%"class.std::locale::facet.base" = type <{ i32 (...)**, i32 }>
%struct.__locale_struct = type { [13 x %struct.__locale_data*], i16*, i32*, i32*, [13 x i8*] }
%struct.__locale_data = type opaque
%"class.std::num_put" = type { %"class.std::locale::facet.base", [4 x i8] }
%"class.std::num_get" = type { %"class.std::locale::facet.base", [4 x i8] }

@_ZStL8__ioinit = internal global %"class.std::ios_base::Init" zeroinitializer, align 1
@__dso_handle = external hidden global i8
@_ZSt3cin = external global %"class.std::basic_istream", align 8
@_ZSt4cout = external global %"class.std::basic_ostream", align 8
@llvm.global_ctors = appending global [1 x { i32, void ()*, i8* }] [{ i32, void ()*, i8* } { i32 65535, void ()* @_GLOBAL__sub_I_2105.cpp, i8* null }]

declare void @_ZNSt8ios_base4InitC1Ev(%"class.std::ios_base::Init"* nonnull align 1 dereferenceable(1)) unnamed_addr #0

; Function Attrs: nounwind
declare void @_ZNSt8ios_base4InitD1Ev(%"class.std::ios_base::Init"* nonnull align 1 dereferenceable(1)) unnamed_addr #1

; Function Attrs: nofree nounwind
declare i32 @__cxa_atexit(void (i8*)*, i8*, i8*) local_unnamed_addr #2

; Function Attrs: mustprogress norecurse sspstrong uwtable
define dso_local i32 @main() local_unnamed_addr #3 {
  %1 = alloca i32, align 4
  %2 = alloca i32, align 4
  %3 = alloca [110 x [110 x i32]], align 16
  %4 = bitcast i32* %1 to i8*
  call void @llvm.lifetime.start.p0i8(i64 4, i8* nonnull %4) #7
  %5 = bitcast i32* %2 to i8*
  call void @llvm.lifetime.start.p0i8(i64 4, i8* nonnull %5) #7
  %6 = bitcast [110 x [110 x i32]]* %3 to i8*
  call void @llvm.lifetime.start.p0i8(i64 48400, i8* nonnull %6) #7
  %7 = call nonnull align 8 dereferenceable(16) %"class.std::basic_istream"* @_ZNSirsERi(%"class.std::basic_istream"* nonnull align 8 dereferenceable(16) @_ZSt3cin, i32* nonnull align 4 dereferenceable(4) %1)
  %8 = call nonnull align 8 dereferenceable(16) %"class.std::basic_istream"* @_ZNSirsERi(%"class.std::basic_istream"* nonnull align 8 dereferenceable(16) %7, i32* nonnull align 4 dereferenceable(4) %2)
  %9 = load i32, i32* %1, align 4, !tbaa !5
  %10 = icmp sgt i32 %9, 0
  %11 = load i32, i32* %2, align 4, !tbaa !5
  %12 = icmp sgt i32 %11, 0
  %13 = select i1 %10, i1 %12, i1 false
  br i1 %13, label %14, label %19

14:                                               ; preds = %0, %27
  %15 = phi i32 [ %28, %27 ], [ %9, %0 ]
  %16 = phi i32 [ %29, %27 ], [ %11, %0 ]
  %17 = phi i64 [ %30, %27 ], [ 0, %0 ]
  %18 = icmp sgt i32 %16, 0
  br i1 %18, label %33, label %27

19:                                               ; preds = %27, %0
  %20 = phi i32 [ %9, %0 ], [ %28, %27 ]
  %21 = phi i32 [ %11, %0 ], [ %29, %27 ]
  %22 = add i32 %21, -1
  %23 = add i32 %22, %20
  %24 = icmp sgt i32 %23, 0
  br i1 %24, label %51, label %50

25:                                               ; preds = %33
  %26 = load i32, i32* %1, align 4, !tbaa !5
  br label %27

27:                                               ; preds = %25, %14
  %28 = phi i32 [ %26, %25 ], [ %15, %14 ]
  %29 = phi i32 [ %38, %25 ], [ %16, %14 ]
  %30 = add nuw nsw i64 %17, 1
  %31 = sext i32 %28 to i64
  %32 = icmp slt i64 %30, %31
  br i1 %32, label %14, label %19, !llvm.loop !9

33:                                               ; preds = %14, %33
  %34 = phi i64 [ %37, %33 ], [ 0, %14 ]
  %35 = getelementptr inbounds [110 x [110 x i32]], [110 x [110 x i32]]* %3, i64 0, i64 %17, i64 %34
  %36 = call nonnull align 8 dereferenceable(16) %"class.std::basic_istream"* @_ZNSirsERi(%"class.std::basic_istream"* nonnull align 8 dereferenceable(16) @_ZSt3cin, i32* nonnull align 4 dereferenceable(4) %35)
  %37 = add nuw nsw i64 %34, 1
  %38 = load i32, i32* %2, align 4, !tbaa !5
  %39 = sext i32 %38 to i64
  %40 = icmp slt i64 %37, %39
  br i1 %40, label %33, label %25, !llvm.loop !12

41:                                               ; preds = %99
  %42 = load i32, i32* %2, align 4, !tbaa !5
  br label %43

43:                                               ; preds = %41, %51
  %44 = phi i32 [ %104, %41 ], [ %52, %51 ]
  %45 = phi i32 [ %42, %41 ], [ %53, %51 ]
  %46 = add i32 %45, -1
  %47 = add i32 %46, %44
  %48 = sext i32 %47 to i64
  %49 = icmp slt i64 %60, %48
  br i1 %49, label %51, label %50, !llvm.loop !13

50:                                               ; preds = %43, %19
  call void @llvm.lifetime.end.p0i8(i64 48400, i8* nonnull %6) #7
  call void @llvm.lifetime.end.p0i8(i64 4, i8* nonnull %5) #7
  call void @llvm.lifetime.end.p0i8(i64 4, i8* nonnull %4) #7
  ret i32 0

51:                                               ; preds = %19, %43
  %52 = phi i32 [ %44, %43 ], [ %20, %19 ]
  %53 = phi i32 [ %45, %43 ], [ %21, %19 ]
  %54 = phi i64 [ %60, %43 ], [ 0, %19 ]
  %55 = trunc i64 %54 to i32
  %56 = sub nsw i32 %55, %53
  %57 = add nsw i32 %56, 1
  %58 = icmp slt i32 %56, 0
  %59 = select i1 %58, i32 0, i32 %57
  %60 = add nuw nsw i64 %54, 1
  %61 = sext i32 %52 to i64
  %62 = icmp slt i64 %60, %61
  %63 = trunc i64 %60 to i32
  %64 = select i1 %62, i32 %63, i32 %52
  %65 = icmp slt i32 %59, %64
  br i1 %65, label %66, label %43

66:                                               ; preds = %51
  %67 = zext i32 %59 to i64
  br label %68

68:                                               ; preds = %66, %99
  %69 = phi i64 [ %67, %66 ], [ %103, %99 ]
  %70 = sub nsw i64 %54, %69
  %71 = getelementptr inbounds [110 x [110 x i32]], [110 x [110 x i32]]* %3, i64 0, i64 %69, i64 %70
  %72 = load i32, i32* %71, align 4, !tbaa !5
  %73 = call nonnull align 8 dereferenceable(8) %"class.std::basic_ostream"* @_ZNSolsEi(%"class.std::basic_ostream"* nonnull align 8 dereferenceable(8) @_ZSt4cout, i32 %72)
  %74 = bitcast %"class.std::basic_ostream"* %73 to i8**
  %75 = load i8*, i8** %74, align 8, !tbaa !14
  %76 = getelementptr i8, i8* %75, i64 -24
  %77 = bitcast i8* %76 to i64*
  %78 = load i64, i64* %77, align 8
  %79 = bitcast %"class.std::basic_ostream"* %73 to i8*
  %80 = add nsw i64 %78, 240
  %81 = getelementptr inbounds i8, i8* %79, i64 %80
  %82 = bitcast i8* %81 to %"class.std::ctype"**
  %83 = load %"class.std::ctype"*, %"class.std::ctype"** %82, align 8, !tbaa !16
  %84 = icmp eq %"class.std::ctype"* %83, null
  br i1 %84, label %85, label %86

85:                                               ; preds = %68
  call void @_ZSt16__throw_bad_castv() #8
  unreachable

86:                                               ; preds = %68
  %87 = getelementptr inbounds %"class.std::ctype", %"class.std::ctype"* %83, i64 0, i32 8
  %88 = load i8, i8* %87, align 8, !tbaa !20
  %89 = icmp eq i8 %88, 0
  br i1 %89, label %93, label %90

90:                                               ; preds = %86
  %91 = getelementptr inbounds %"class.std::ctype", %"class.std::ctype"* %83, i64 0, i32 9, i64 10
  %92 = load i8, i8* %91, align 1, !tbaa !22
  br label %99

93:                                               ; preds = %86
  call void @_ZNKSt5ctypeIcE13_M_widen_initEv(%"class.std::ctype"* nonnull align 8 dereferenceable(570) %83)
  %94 = bitcast %"class.std::ctype"* %83 to i8 (%"class.std::ctype"*, i8)***
  %95 = load i8 (%"class.std::ctype"*, i8)**, i8 (%"class.std::ctype"*, i8)*** %94, align 8, !tbaa !14
  %96 = getelementptr inbounds i8 (%"class.std::ctype"*, i8)*, i8 (%"class.std::ctype"*, i8)** %95, i64 6
  %97 = load i8 (%"class.std::ctype"*, i8)*, i8 (%"class.std::ctype"*, i8)** %96, align 8
  %98 = call signext i8 %97(%"class.std::ctype"* nonnull align 8 dereferenceable(570) %83, i8 signext 10)
  br label %99

99:                                               ; preds = %90, %93
  %100 = phi i8 [ %92, %90 ], [ %98, %93 ]
  %101 = call nonnull align 8 dereferenceable(8) %"class.std::basic_ostream"* @_ZNSo3putEc(%"class.std::basic_ostream"* nonnull align 8 dereferenceable(8) %73, i8 signext %100)
  %102 = call nonnull align 8 dereferenceable(8) %"class.std::basic_ostream"* @_ZNSo5flushEv(%"class.std::basic_ostream"* nonnull align 8 dereferenceable(8) %101)
  %103 = add nuw nsw i64 %69, 1
  %104 = load i32, i32* %1, align 4, !tbaa !5
  %105 = sext i32 %104 to i64
  %106 = icmp slt i64 %60, %105
  %107 = select i1 %106, i32 %63, i32 %104
  %108 = sext i32 %107 to i64
  %109 = icmp slt i64 %103, %108
  br i1 %109, label %68, label %41, !llvm.loop !23
}

; Function Attrs: argmemonly mustprogress nofree nosync nounwind willreturn
declare void @llvm.lifetime.start.p0i8(i64 immarg, i8* nocapture) #4

declare nonnull align 8 dereferenceable(16) %"class.std::basic_istream"* @_ZNSirsERi(%"class.std::basic_istream"* nonnull align 8 dereferenceable(16), i32* nonnull align 4 dereferenceable(4)) local_unnamed_addr #0

; Function Attrs: argmemonly mustprogress nofree nosync nounwind willreturn
declare void @llvm.lifetime.end.p0i8(i64 immarg, i8* nocapture) #4

declare nonnull align 8 dereferenceable(8) %"class.std::basic_ostream"* @_ZNSolsEi(%"class.std::basic_ostream"* nonnull align 8 dereferenceable(8), i32) local_unnamed_addr #0

declare nonnull align 8 dereferenceable(8) %"class.std::basic_ostream"* @_ZNSo3putEc(%"class.std::basic_ostream"* nonnull align 8 dereferenceable(8), i8 signext) local_unnamed_addr #0

declare nonnull align 8 dereferenceable(8) %"class.std::basic_ostream"* @_ZNSo5flushEv(%"class.std::basic_ostream"* nonnull align 8 dereferenceable(8)) local_unnamed_addr #0

; Function Attrs: noreturn
declare void @_ZSt16__throw_bad_castv() local_unnamed_addr #5

declare void @_ZNKSt5ctypeIcE13_M_widen_initEv(%"class.std::ctype"* nonnull align 8 dereferenceable(570)) local_unnamed_addr #0

; Function Attrs: sspstrong uwtable
define internal void @_GLOBAL__sub_I_2105.cpp() #6 section ".text.startup" {
  tail call void @_ZNSt8ios_base4InitC1Ev(%"class.std::ios_base::Init"* nonnull align 1 dereferenceable(1) @_ZStL8__ioinit)
  %1 = tail call i32 @__cxa_atexit(void (i8*)* bitcast (void (%"class.std::ios_base::Init"*)* @_ZNSt8ios_base4InitD1Ev to void (i8*)*), i8* getelementptr inbounds (%"class.std::ios_base::Init", %"class.std::ios_base::Init"* @_ZStL8__ioinit, i64 0, i32 0), i8* nonnull @__dso_handle) #7
  ret void
}


!llvm.module.flags = !{!0, !1, !2, !3}
!llvm.ident = !{!4}

!0 = !{i32 1, !"wchar_size", i32 4}
!1 = !{i32 7, !"PIC Level", i32 2}
!2 = !{i32 7, !"PIE Level", i32 2}
!3 = !{i32 7, !"uwtable", i32 1}
!4 = !{!"clang version 13.0.0"}
!5 = !{!6, !6, i64 0}
!6 = !{!"int", !7, i64 0}
!7 = !{!"omnipotent char", !8, i64 0}
!8 = !{!"Simple C++ TBAA"}
!9 = distinct !{!9, !10, !11}
!10 = !{!"llvm.loop.mustprogress"}
!11 = !{!"llvm.loop.unswitch.partial.disable"}
!12 = distinct !{!12, !10}
!13 = distinct !{!13, !10}
!14 = !{!15, !15, i64 0}
!15 = !{!"vtable pointer", !8, i64 0}
!16 = !{!17, !18, i64 240}
!17 = !{!"_ZTSSt9basic_iosIcSt11char_traitsIcEE", !18, i64 216, !7, i64 224, !19, i64 225, !18, i64 232, !18, i64 240, !18, i64 248, !18, i64 256}
!18 = !{!"any pointer", !7, i64 0}
!19 = !{!"bool", !7, i64 0}
!20 = !{!21, !7, i64 56}
!21 = !{!"_ZTSSt5ctypeIcE", !18, i64 16, !19, i64 24, !18, i64 32, !18, i64 40, !18, i64 48, !7, i64 56, !7, i64 57, !7, i64 313, !7, i64 569}
!22 = !{!7, !7, i64 0}
!23 = distinct !{!23, !10}
